target datalayout = "e-m:e-p270:32:32-p271:32:32-p272:64:64-i64:64-i128:128-f80:128-n8:16:32:64-S128"
target triple = "x86_64-pc-linux-gnu"

%struct.SeqDemuxContext = type { i32, i32, i32, i32, [30 x %struct.TiertexSeqFrameBuffer], i32, i32, i32, i32, i32, i32, ptr, i32 }
%struct.TiertexSeqFrameBuffer = type { i32, i32, ptr }

; Function Attrs: nounwind uwtable
define internal i32 @seq_fill_buffer(ptr noundef %0, ptr noundef %1, i32 noundef %2, i32 noundef %3, i32 noundef %4) #0 {
  %6 = alloca i32, align 4
  %7 = alloca ptr, align 8
  %8 = alloca ptr, align 8
  %9 = alloca i32, align 4
  %10 = alloca i32, align 4
  %11 = alloca i32, align 4
  %12 = alloca ptr, align 8
  %13 = alloca i32, align 4
  store ptr %0, ptr %7, align 8, !tbaa !35
  store ptr %1, ptr %8, align 8, !tbaa !38
  store i32 %2, ptr %9, align 4, !tbaa !13
  store i32 %3, ptr %10, align 4, !tbaa !13
  store i32 %4, ptr %11, align 4, !tbaa !13
  call void @llvm.lifetime.start.p0(i64 8, ptr %12) #4
  %14 = load i32, ptr %9, align 4, !tbaa !13
  %15 = icmp sge i32 %14, 30
  br i1 %15, label %16, label %17

16:                                               ; preds = %5
  store i32 -1094995529, ptr %6, align 4
  store i32 1, ptr %13, align 4
  br label %65

17:                                               ; preds = %5
  %18 = load ptr, ptr %7, align 8, !tbaa !35
  %19 = getelementptr inbounds nuw %struct.SeqDemuxContext, ptr %18, i32 0, i32 4
  %20 = load i32, ptr %9, align 4, !tbaa !13
  %21 = sext i32 %20 to i64
  %22 = getelementptr inbounds [30 x %struct.TiertexSeqFrameBuffer], ptr %19, i64 0, i64 %21
  store ptr %22, ptr %12, align 8, !tbaa !86
  %23 = load ptr, ptr %12, align 8, !tbaa !86
  %24 = getelementptr inbounds nuw %struct.TiertexSeqFrameBuffer, ptr %23, i32 0, i32 0
  %25 = load i32, ptr %24, align 8, !tbaa !88
  %26 = load i32, ptr %11, align 4, !tbaa !13
  %27 = add nsw i32 %25, %26
  %28 = load ptr, ptr %12, align 8, !tbaa !86
  %29 = getelementptr inbounds nuw %struct.TiertexSeqFrameBuffer, ptr %28, i32 0, i32 1
  %30 = load i32, ptr %29, align 4, !tbaa !90
  %31 = icmp sgt i32 %27, %30
  br i1 %31, label %35, label %32

32:                                               ; preds = %17
  %33 = load i32, ptr %11, align 4, !tbaa !13
  %34 = icmp sle i32 %33, 0
  br i1 %34, label %35, label %36

35:                                               ; preds = %32, %17
  store i32 -1094995529, ptr %6, align 4
  store i32 1, ptr %13, align 4
  br label %65

36:                                               ; preds = %32
  %37 = load ptr, ptr %8, align 8, !tbaa !38
  %38 = load ptr, ptr %7, align 8, !tbaa !35
  %39 = getelementptr inbounds nuw %struct.SeqDemuxContext, ptr %38, i32 0, i32 3
  %40 = load i32, ptr %39, align 4, !tbaa !39
  %41 = load i32, ptr %10, align 4, !tbaa !13
  %42 = add i32 %40, %41
  %43 = zext i32 %42 to i64
  %44 = call i64 @avio_seek(ptr noundef %37, i64 noundef %43, i32 noundef 0)
  %45 = load ptr, ptr %8, align 8, !tbaa !38
  %46 = load ptr, ptr %12, align 8, !tbaa !86
  %47 = getelementptr inbounds nuw %struct.TiertexSeqFrameBuffer, ptr %46, i32 0, i32 2
  %48 = load ptr, ptr %47, align 8, !tbaa !91
  %49 = load ptr, ptr %12, align 8, !tbaa !86
  %50 = getelementptr inbounds nuw %struct.TiertexSeqFrameBuffer, ptr %49, i32 0, i32 0
  %51 = load i32, ptr %50, align 8, !tbaa !88
  %52 = sext i32 %51 to i64
  %53 = getelementptr inbounds i8, ptr %48, i64 %52
  %54 = load i32, ptr %11, align 4, !tbaa !13
  %55 = call i32 @avio_read(ptr noundef %45, ptr noundef %53, i32 noundef %54)
  %56 = load i32, ptr %11, align 4, !tbaa !13
  %57 = icmp ne i32 %55, %56
  br i1 %57, label %58, label %59

58:                                               ; preds = %36
  store i32 -5, ptr %6, align 4
  store i32 1, ptr %13, align 4
  br label %65

59:                                               ; preds = %36
  %60 = load i32, ptr %11, align 4, !tbaa !13
  %61 = load ptr, ptr %12, align 8, !tbaa !86
  %62 = getelementptr inbounds nuw %struct.TiertexSeqFrameBuffer, ptr %61, i32 0, i32 0
  %63 = load i32, ptr %62, align 8, !tbaa !88
  %64 = add nsw i32 %63, %60
  store i32 %64, ptr %62, align 8, !tbaa !88
  store i32 0, ptr %6, align 4
  store i32 1, ptr %13, align 4
  br label %65

65:                                               ; preds = %59, %58, %35, %16
  call void @llvm.lifetime.end.p0(i64 8, ptr %12) #4
  %66 = load i32, ptr %6, align 4
  ret i32 %66
}

; Function Attrs: nounwind uwtable
define internal i32 @seq_parse_frame_data(ptr noundef %0, ptr noundef %1) #0 {
  %3 = alloca i32, align 4
  %4 = alloca ptr, align 8
  %5 = alloca ptr, align 8
  %6 = alloca [4 x i32], align 16
  %7 = alloca [4 x i32], align 16
  %8 = alloca ptr, align 8
  %9 = alloca i32, align 4
  %10 = alloca i32, align 4
  %11 = alloca i32, align 4
  %12 = alloca i32, align 4
  store ptr %0, ptr %4, align 8, !tbaa !35
  store ptr %1, ptr %5, align 8, !tbaa !38
  call void @llvm.lifetime.start.p0(i64 16, ptr %6) #4
  call void @llvm.lifetime.start.p0(i64 16, ptr %7) #4
  call void @llvm.lifetime.start.p0(i64 8, ptr %8) #4
  call void @llvm.lifetime.start.p0(i64 4, ptr %9) #4
  call void @llvm.lifetime.start.p0(i64 4, ptr %10) #4
  call void @llvm.lifetime.start.p0(i64 4, ptr %11) #4
  %13 = load ptr, ptr %4, align 8, !tbaa !35
  %14 = getelementptr inbounds nuw %struct.SeqDemuxContext, ptr %13, i32 0, i32 3
  %15 = load i32, ptr %14, align 4, !tbaa !39
  %16 = add nsw i32 %15, 6144
  store i32 %16, ptr %14, align 4, !tbaa !39
  %17 = load ptr, ptr %5, align 8, !tbaa !38
  %18 = load ptr, ptr %4, align 8, !tbaa !35
  %19 = getelementptr inbounds nuw %struct.SeqDemuxContext, ptr %18, i32 0, i32 3
  %20 = load i32, ptr %19, align 4, !tbaa !39
  %21 = sext i32 %20 to i64
  %22 = call i64 @avio_seek(ptr noundef %17, i64 noundef %21, i32 noundef 0)
  %23 = load ptr, ptr %5, align 8, !tbaa !38
  %24 = call i32 @avio_rl16(ptr noundef %23)
  %25 = load ptr, ptr %4, align 8, !tbaa !35
  %26 = getelementptr inbounds nuw %struct.SeqDemuxContext, ptr %25, i32 0, i32 7
  store i32 %24, ptr %26, align 8, !tbaa !83
  %27 = load ptr, ptr %4, align 8, !tbaa !35
  %28 = getelementptr inbounds nuw %struct.SeqDemuxContext, ptr %27, i32 0, i32 7
  %29 = load i32, ptr %28, align 8, !tbaa !83
  %30 = icmp ne i32 %29, 0
  br i1 %30, label %31, label %34

31:                                               ; preds = %2
  %32 = load ptr, ptr %4, align 8, !tbaa !35
  %33 = getelementptr inbounds nuw %struct.SeqDemuxContext, ptr %32, i32 0, i32 6
  store i32 1764, ptr %33, align 4, !tbaa !84
  br label %37

34:                                               ; preds = %2
  %35 = load ptr, ptr %4, align 8, !tbaa !35
  %36 = getelementptr inbounds nuw %struct.SeqDemuxContext, ptr %35, i32 0, i32 6
  store i32 0, ptr %36, align 4, !tbaa !84
  br label %37

37:                                               ; preds = %34, %31
  %38 = load ptr, ptr %5, align 8, !tbaa !38
  %39 = call i32 @avio_rl16(ptr noundef %38)
  %40 = load ptr, ptr %4, align 8, !tbaa !35
  %41 = getelementptr inbounds nuw %struct.SeqDemuxContext, ptr %40, i32 0, i32 9
  store i32 %39, ptr %41, align 8, !tbaa !79
  %42 = load ptr, ptr %4, align 8, !tbaa !35
  %43 = getelementptr inbounds nuw %struct.SeqDemuxContext, ptr %42, i32 0, i32 9
  %44 = load i32, ptr %43, align 8, !tbaa !79
  %45 = icmp ne i32 %44, 0
  br i1 %45, label %46, label %49

46:                                               ; preds = %37
  %47 = load ptr, ptr %4, align 8, !tbaa !35
  %48 = getelementptr inbounds nuw %struct.SeqDemuxContext, ptr %47, i32 0, i32 8
  store i32 768, ptr %48, align 4, !tbaa !76
  br label %52

49:                                               ; preds = %37
  %50 = load ptr, ptr %4, align 8, !tbaa !35
  %51 = getelementptr inbounds nuw %struct.SeqDemuxContext, ptr %50, i32 0, i32 8
  store i32 0, ptr %51, align 4, !tbaa !76
  br label %52

52:                                               ; preds = %49, %46
  store i32 0, ptr %9, align 4, !tbaa !13
  br label %53

53:                                               ; preds = %62, %52
  %54 = load i32, ptr %9, align 4, !tbaa !13
  %55 = icmp slt i32 %54, 4
  br i1 %55, label %56, label %65

56:                                               ; preds = %53
  %57 = load ptr, ptr %5, align 8, !tbaa !38
  %58 = call i32 @avio_r8(ptr noundef %57)
  %59 = load i32, ptr %9, align 4, !tbaa !13
  %60 = sext i32 %59 to i64
  %61 = getelementptr inbounds [4 x i32], ptr %7, i64 0, i64 %60
  store i32 %58, ptr %61, align 4, !tbaa !13
  br label %62

62:                                               ; preds = %56
  %63 = load i32, ptr %9, align 4, !tbaa !13
  %64 = add nsw i32 %63, 1
  store i32 %64, ptr %9, align 4, !tbaa !13
  br label %53, !llvm.loop !94

65:                                               ; preds = %53
  store i32 0, ptr %9, align 4, !tbaa !13
  br label %66

66:                                               ; preds = %75, %65
  %67 = load i32, ptr %9, align 4, !tbaa !13
  %68 = icmp slt i32 %67, 4
  br i1 %68, label %69, label %78

69:                                               ; preds = %66
  %70 = load ptr, ptr %5, align 8, !tbaa !38
  %71 = call i32 @avio_rl16(ptr noundef %70)
  %72 = load i32, ptr %9, align 4, !tbaa !13
  %73 = sext i32 %72 to i64
  %74 = getelementptr inbounds [4 x i32], ptr %6, i64 0, i64 %73
  store i32 %71, ptr %74, align 4, !tbaa !13
  br label %75

75:                                               ; preds = %69
  %76 = load i32, ptr %9, align 4, !tbaa !13
  %77 = add nsw i32 %76, 1
  store i32 %77, ptr %9, align 4, !tbaa !13
  br label %66, !llvm.loop !95

78:                                               ; preds = %66
  store i32 0, ptr %9, align 4, !tbaa !13
  br label %79

79:                                               ; preds = %134, %78
  %80 = load i32, ptr %9, align 4, !tbaa !13
  %81 = icmp slt i32 %80, 3
  br i1 %81, label %82, label %137

82:                                               ; preds = %79
  %83 = load i32, ptr %9, align 4, !tbaa !13
  %84 = sext i32 %83 to i64
  %85 = getelementptr inbounds [4 x i32], ptr %6, i64 0, i64 %84
  %86 = load i32, ptr %85, align 4, !tbaa !13
  %87 = icmp ne i32 %86, 0
  br i1 %87, label %88, label %133

88:                                               ; preds = %82
  %89 = load i32, ptr %9, align 4, !tbaa !13
  %90 = add nsw i32 %89, 1
  store i32 %90, ptr %10, align 4, !tbaa !13
  br label %91

91:                                               ; preds = %103, %88
  %92 = load i32, ptr %10, align 4, !tbaa !13
  %93 = icmp slt i32 %92, 3
  br i1 %93, label %94, label %100

94:                                               ; preds = %91
  %95 = load i32, ptr %10, align 4, !tbaa !13
  %96 = sext i32 %95 to i64
  %97 = getelementptr inbounds [4 x i32], ptr %6, i64 0, i64 %96
  %98 = load i32, ptr %97, align 4, !tbaa !13
  %99 = icmp eq i32 %98, 0
  br label %100

100:                                              ; preds = %94, %91
  %101 = phi i1 [ false, %91 ], [ %99, %94 ]
  br i1 %101, label %102, label %106

102:                                              ; preds = %100
  br label %103

103:                                              ; preds = %102
  %104 = load i32, ptr %10, align 4, !tbaa !13
  %105 = add nsw i32 %104, 1
  store i32 %105, ptr %10, align 4, !tbaa !13
  br label %91, !llvm.loop !96

106:                                              ; preds = %100
  %107 = load ptr, ptr %4, align 8, !tbaa !35
  %108 = load ptr, ptr %5, align 8, !tbaa !38
  %109 = load i32, ptr %9, align 4, !tbaa !13
  %110 = add nsw i32 1, %109
  %111 = sext i32 %110 to i64
  %112 = getelementptr inbounds [4 x i32], ptr %7, i64 0, i64 %111
  %113 = load i32, ptr %112, align 4, !tbaa !13
  %114 = load i32, ptr %9, align 4, !tbaa !13
  %115 = sext i32 %114 to i64
  %116 = getelementptr inbounds [4 x i32], ptr %6, i64 0, i64 %115
  %117 = load i32, ptr %116, align 4, !tbaa !13
  %118 = load i32, ptr %10, align 4, !tbaa !13
  %119 = sext i32 %118 to i64
  %120 = getelementptr inbounds [4 x i32], ptr %6, i64 0, i64 %119
  %121 = load i32, ptr %120, align 4, !tbaa !13
  %122 = load i32, ptr %9, align 4, !tbaa !13
  %123 = sext i32 %122 to i64
  %124 = getelementptr inbounds [4 x i32], ptr %6, i64 0, i64 %123
  %125 = load i32, ptr %124, align 4, !tbaa !13
  %126 = sub i32 %121, %125
  %127 = call i32 @seq_fill_buffer(ptr noundef %107, ptr noundef %108, i32 noundef %113, i32 noundef %117, i32 noundef %126)
  store i32 %127, ptr %11, align 4, !tbaa !13
  %128 = load i32, ptr %11, align 4, !tbaa !13
  %129 = icmp ne i32 %128, 0
  br i1 %129, label %130, label %132

130:                                              ; preds = %106
  %131 = load i32, ptr %11, align 4, !tbaa !13
  store i32 %131, ptr %3, align 4
  store i32 1, ptr %12, align 4
  br label %171

132:                                              ; preds = %106
  br label %133

133:                                              ; preds = %132, %82
  br label %134

134:                                              ; preds = %133
  %135 = load i32, ptr %9, align 4, !tbaa !13
  %136 = add nsw i32 %135, 1
  store i32 %136, ptr %9, align 4, !tbaa !13
  br label %79, !llvm.loop !97

137:                                              ; preds = %79
  %138 = getelementptr inbounds [4 x i32], ptr %7, i64 0, i64 0
  %139 = load i32, ptr %138, align 16, !tbaa !13
  %140 = icmp ne i32 %139, 255
  br i1 %140, label %141, label %165

141:                                              ; preds = %137
  %142 = getelementptr inbounds [4 x i32], ptr %7, i64 0, i64 0
  %143 = load i32, ptr %142, align 16, !tbaa !13
  %144 = icmp uge i32 %143, 30
  br i1 %144, label %145, label %146

145:                                              ; preds = %141
  store i32 -1094995529, ptr %3, align 4
  store i32 1, ptr %12, align 4
  br label %171

146:                                              ; preds = %141
  %147 = load ptr, ptr %4, align 8, !tbaa !35
  %148 = getelementptr inbounds nuw %struct.SeqDemuxContext, ptr %147, i32 0, i32 4
  %149 = getelementptr inbounds [4 x i32], ptr %7, i64 0, i64 0
  %150 = load i32, ptr %149, align 16, !tbaa !13
  %151 = zext i32 %150 to i64
  %152 = getelementptr inbounds nuw [30 x %struct.TiertexSeqFrameBuffer], ptr %148, i64 0, i64 %151
  store ptr %152, ptr %8, align 8, !tbaa !86
  %153 = load ptr, ptr %8, align 8, !tbaa !86
  %154 = getelementptr inbounds nuw %struct.TiertexSeqFrameBuffer, ptr %153, i32 0, i32 0
  %155 = load i32, ptr %154, align 8, !tbaa !88
  %156 = load ptr, ptr %4, align 8, !tbaa !35
  %157 = getelementptr inbounds nuw %struct.SeqDemuxContext, ptr %156, i32 0, i32 10
  store i32 %155, ptr %157, align 4, !tbaa !77
  %158 = load ptr, ptr %8, align 8, !tbaa !86
  %159 = getelementptr inbounds nuw %struct.TiertexSeqFrameBuffer, ptr %158, i32 0, i32 2
  %160 = load ptr, ptr %159, align 8, !tbaa !91
  %161 = load ptr, ptr %4, align 8, !tbaa !35
  %162 = getelementptr inbounds nuw %struct.SeqDemuxContext, ptr %161, i32 0, i32 11
  store ptr %160, ptr %162, align 8, !tbaa !80
  %163 = load ptr, ptr %8, align 8, !tbaa !86
  %164 = getelementptr inbounds nuw %struct.TiertexSeqFrameBuffer, ptr %163, i32 0, i32 0
  store i32 0, ptr %164, align 8, !tbaa !88
  br label %170

165:                                              ; preds = %137
  %166 = load ptr, ptr %4, align 8, !tbaa !35
  %167 = getelementptr inbounds nuw %struct.SeqDemuxContext, ptr %166, i32 0, i32 10
  store i32 0, ptr %167, align 4, !tbaa !77
  %168 = load ptr, ptr %4, align 8, !tbaa !35
  %169 = getelementptr inbounds nuw %struct.SeqDemuxContext, ptr %168, i32 0, i32 11
  store ptr null, ptr %169, align 8, !tbaa !80
  br label %170

170:                                              ; preds = %165, %146
  store i32 0, ptr %3, align 4
  store i32 1, ptr %12, align 4
  br label %171

171:                                              ; preds = %170, %145, %130
  call void @llvm.lifetime.end.p0(i64 4, ptr %11) #4
  call void @llvm.lifetime.end.p0(i64 4, ptr %10) #4
  call void @llvm.lifetime.end.p0(i64 4, ptr %9) #4
  call void @llvm.lifetime.end.p0(i64 8, ptr %8) #4
  call void @llvm.lifetime.end.p0(i64 16, ptr %7) #4
  call void @llvm.lifetime.end.p0(i64 16, ptr %6) #4
  %172 = load i32, ptr %3, align 4
  ret i32 %172
}