; Function Attrs: nounwind uwtable
define internal fastcc range(i32 -1094995529, 1) i32 @seq_parse_frame_data(ptr noundef captures(none) initializes((500, 516)) %0, ptr noundef %1) unnamed_addr #1 {
  %3 = alloca [4 x i32], align 16
  %4 = alloca [4 x i32], align 16
  call void @llvm.lifetime.start.p0(i64 16, ptr nonnull %3) #5
  call void @llvm.lifetime.start.p0(i64 16, ptr nonnull %4) #5
  %5 = getelementptr inbounds nuw i8, ptr %0, i64 12
  %6 = load i32, ptr %5, align 4, !tbaa !38
  %7 = add nsw i32 %6, 6144
  store i32 %7, ptr %5, align 4, !tbaa !38
  %8 = sext i32 %7 to i64
  %9 = tail call i64 @avio_seek(ptr noundef %1, i64 noundef %8, i32 noundef 0) #5
  %10 = tail call i32 @avio_rl16(ptr noundef %1) #5
  %11 = getelementptr inbounds nuw i8, ptr %0, i64 504
  store i32 %10, ptr %11, align 8, !tbaa !74
  %.not = icmp eq i32 %10, 0
  %spec.select = select i1 %.not, i32 0, i32 1764
  %12 = getelementptr inbounds nuw i8, ptr %0, i64 500
  store i32 %spec.select, ptr %12, align 4, !tbaa !75
  %13 = tail call i32 @avio_rl16(ptr noundef %1) #5
  %14 = getelementptr inbounds nuw i8, ptr %0, i64 512
  store i32 %13, ptr %14, align 8, !tbaa !70
  %.not48 = icmp eq i32 %13, 0
  %.sink76 = select i1 %.not48, i32 0, i32 768
  %15 = getelementptr inbounds nuw i8, ptr %0, i64 508
  store i32 %.sink76, ptr %15, align 4, !tbaa !67
  br label %16

16:                                               ; preds = %2, %16
  %indvars.iv = phi i64 [ 0, %2 ], [ %indvars.iv.next, %16 ]
  %17 = tail call i32 @avio_r8(ptr noundef %1) #5
  %18 = getelementptr inbounds nuw [4 x i32], ptr %4, i64 0, i64 %indvars.iv
  store i32 %17, ptr %18, align 4, !tbaa !60
  %indvars.iv.next = add nuw nsw i64 %indvars.iv, 1
  %exitcond.not = icmp eq i64 %indvars.iv.next, 4
  br i1 %exitcond.not, label %.preheader54, label %16, !llvm.loop !77

.preheader:                                       ; preds = %.preheader54
  %19 = getelementptr inbounds nuw i8, ptr %0, i64 16
  br label %22

.preheader54:                                     ; preds = %16, %.preheader54
  %indvars.iv62 = phi i64 [ %indvars.iv.next63, %.preheader54 ], [ 0, %16 ]
  %20 = tail call i32 @avio_rl16(ptr noundef %1) #5
  %21 = getelementptr inbounds nuw [4 x i32], ptr %3, i64 0, i64 %indvars.iv62
  store i32 %20, ptr %21, align 4, !tbaa !60
  %indvars.iv.next63 = add nuw nsw i64 %indvars.iv62, 1
  %exitcond65.not = icmp eq i64 %indvars.iv.next63, 4
  br i1 %exitcond65.not, label %.preheader, label %.preheader54, !llvm.loop !78

22:                                               ; preds = %.preheader, %._crit_edge
  %indvars.iv72 = phi i64 [ 0, %.preheader ], [ %.pre, %._crit_edge ]
  %indvars.iv66 = phi i64 [ 1, %.preheader ], [ %indvars.iv.next67, %._crit_edge ]
  %23 = getelementptr inbounds nuw [4 x i32], ptr %3, i64 0, i64 %indvars.iv72
  %24 = load i32, ptr %23, align 4, !tbaa !60
  %.not50 = icmp eq i32 %24, 0
  %.pre = add nuw nsw i64 %indvars.iv72, 1
  br i1 %.not50, label %._crit_edge, label %25

25:                                               ; preds = %22
  %26 = icmp samesign ult i64 %indvars.iv72, 2
  br i1 %26, label %.lr.ph, label %.critedge

.lr.ph:                                           ; preds = %25, %30
  %indvars.iv68 = phi i64 [ %indvars.iv.next69, %30 ], [ %indvars.iv66, %25 ]
  %27 = getelementptr inbounds nuw [4 x i32], ptr %3, i64 0, i64 %indvars.iv68
  %28 = load i32, ptr %27, align 4, !tbaa !60
  %29 = icmp eq i32 %28, 0
  br i1 %29, label %30, label %.critedge

30:                                               ; preds = %.lr.ph
  %indvars.iv.next69 = add nuw nsw i64 %indvars.iv68, 1
  %exitcond71.not = icmp eq i64 %indvars.iv.next69, 3
  br i1 %exitcond71.not, label %.critedge, label %.lr.ph, !llvm.loop !79

.critedge:                                        ; preds = %.lr.ph, %30, %25
  %.044.lcssa = phi i64 [ %.pre, %25 ], [ 3, %30 ], [ %indvars.iv68, %.lr.ph ]
  %31 = getelementptr inbounds nuw [4 x i32], ptr %4, i64 0, i64 %.pre
  %32 = load i32, ptr %31, align 4, !tbaa !60
  %33 = and i64 %.044.lcssa, 4294967295
  %34 = getelementptr inbounds nuw [4 x i32], ptr %3, i64 0, i64 %33
  %35 = load i32, ptr %34, align 4, !tbaa !60
  %36 = sub i32 %35, %24
  %37 = icmp sgt i32 %32, 29
  br i1 %37, label %seq_fill_buffer.exit.thread, label %38

38:                                               ; preds = %.critedge
  %39 = sext i32 %32 to i64
  %40 = getelementptr inbounds [30 x %struct.TiertexSeqFrameBuffer], ptr %19, i64 0, i64 %39
  %41 = load i32, ptr %40, align 8, !tbaa !31
  %42 = add nsw i32 %41, %36
  %43 = getelementptr inbounds nuw i8, ptr %40, i64 4
  %44 = load i32, ptr %43, align 4, !tbaa !33
  %45 = icmp sgt i32 %42, %44
  %46 = icmp slt i32 %36, 1
  %or.cond.i = or i1 %46, %45
  br i1 %or.cond.i, label %seq_fill_buffer.exit.thread, label %47

47:                                               ; preds = %38
  %48 = load i32, ptr %5, align 4, !tbaa !38
  %49 = add i32 %48, %24
  %50 = zext i32 %49 to i64
  %51 = tail call i64 @avio_seek(ptr noundef %1, i64 noundef %50, i32 noundef 0) #5
  %52 = getelementptr inbounds nuw i8, ptr %40, i64 8
  %53 = load ptr, ptr %52, align 8, !tbaa !34
  %54 = load i32, ptr %40, align 8, !tbaa !31
  %55 = sext i32 %54 to i64
  %56 = getelementptr inbounds i8, ptr %53, i64 %55
  %57 = tail call i32 @avio_read(ptr noundef %1, ptr noundef %56, i32 noundef %36) #5
  %.not.i = icmp eq i32 %57, %36
  br i1 %.not.i, label %seq_fill_buffer.exit, label %seq_fill_buffer.exit.thread

seq_fill_buffer.exit:                             ; preds = %47
  %58 = load i32, ptr %40, align 8, !tbaa !31
  %59 = add nsw i32 %58, %36
  store i32 %59, ptr %40, align 8, !tbaa !31
  br label %._crit_edge

._crit_edge:                                      ; preds = %22, %seq_fill_buffer.exit
  %indvars.iv.next67 = add nuw nsw i64 %indvars.iv66, 1
  %exitcond75.not = icmp eq i64 %.pre, 3
  br i1 %exitcond75.not, label %60, label %22, !llvm.loop !80

60:                                               ; preds = %._crit_edge
  %61 = load i32, ptr %4, align 16, !tbaa !60
  %.not49 = icmp eq i32 %61, 255
  br i1 %.not49, label %72, label %62

62:                                               ; preds = %60
  %63 = icmp ugt i32 %61, 29
  br i1 %63, label %seq_fill_buffer.exit.thread, label %64

64:                                               ; preds = %62
  %65 = zext nneg i32 %61 to i64
  %66 = getelementptr inbounds nuw [30 x %struct.TiertexSeqFrameBuffer], ptr %19, i64 0, i64 %65
  %67 = load i32, ptr %66, align 8, !tbaa !31
  %68 = getelementptr inbounds nuw i8, ptr %0, i64 516
  store i32 %67, ptr %68, align 4, !tbaa !68
  %69 = getelementptr inbounds nuw i8, ptr %66, i64 8
  %70 = load ptr, ptr %69, align 8, !tbaa !34
  %71 = getelementptr inbounds nuw i8, ptr %0, i64 520
  store ptr %70, ptr %71, align 8, !tbaa !71
  store i32 0, ptr %66, align 8, !tbaa !31
  br label %seq_fill_buffer.exit.thread

72:                                               ; preds = %60
  %73 = getelementptr inbounds nuw i8, ptr %0, i64 516
  store i32 0, ptr %73, align 4, !tbaa !68
  %74 = getelementptr inbounds nuw i8, ptr %0, i64 520
  store ptr null, ptr %74, align 8, !tbaa !71
  br label %seq_fill_buffer.exit.thread

seq_fill_buffer.exit.thread:                      ; preds = %47, %38, %.critedge, %64, %72, %62
  %.0 = phi i32 [ -1094995529, %62 ], [ 0, %72 ], [ 0, %64 ], [ -1094995529, %.critedge ], [ -1094995529, %38 ], [ -5, %47 ]
  call void @llvm.lifetime.end.p0(i64 16, ptr nonnull %4) #5
  call void @llvm.lifetime.end.p0(i64 16, ptr nonnull %3) #5
  ret i32 %.0
}